libkiten.so.5:_ZN10EntryEdict9loadEntryERK7QString
libkiten.so.5:_ZN10EntryEdictC1ERK7QString
libkiten.so.5:_ZN10EntryEdictC1ERK7QStringS2_
libkiten.so.5:_ZN10EntryEdictC2ERK7QString
libkiten.so.5:_ZN10EntryEdictC2ERK7QStringS2_
libkiten.so.5:_ZN13DictFileEdict10validQueryERK9DictQuery
libkiten.so.5:_ZN13DictFileEdict12loadListTypeEP19KConfigSkeletonItemP11QStringListRK4QMapI7QStringS5_E
libkiten.so.5:_ZN13DictFileEdict12loadSettingsEP15KConfigSkeleton
libkiten.so.5:_ZN13DictFileEdict12loadSettingsEv
libkiten.so.5:_ZN13DictFileEdict14loadDictionaryERK7QStringS2_
libkiten.so.5:_ZN13DictFileEdict17preferencesWidgetEP15KConfigSkeletonP7QWidget
libkiten.so.5:_ZN13DictFileEdict19validDictionaryFileERK7QString
libkiten.so.5:_ZN13DictFileEdict8doSearchERK9DictQuery
libkiten.so.5:_ZN13DictFileEdictC1Ev
libkiten.so.5:_ZN13DictFileEdictC2Ev
libkiten.so.5:_ZN13DictFileEdictD0Ev
libkiten.so.5:_ZN13DictFileEdictD1Ev
libkiten.so.5:_ZN13DictFileEdictD2Ev
libkiten.so.5:_ZN13EntryKanjidic9loadEntryERK7QString
libkiten.so.5:_ZN13EntryKanjidicC1ERK7QString
libkiten.so.5:_ZN13EntryKanjidicC1ERK7QStringS2_
libkiten.so.5:_ZN13EntryKanjidicC1ERKS_
libkiten.so.5:_ZN13EntryKanjidicC2ERK7QString
libkiten.so.5:_ZN13EntryKanjidicC2ERK7QStringS2_
libkiten.so.5:_ZN13EntryKanjidicC2ERKS_
libkiten.so.5:_ZN14HistoryPtrList10setCurrentEi
libkiten.so.5:_ZN14HistoryPtrList12toStringListEv
libkiten.so.5:_ZN14HistoryPtrList16toStringListNextEv
libkiten.so.5:_ZN14HistoryPtrList16toStringListPrevEv
libkiten.so.5:_ZN14HistoryPtrList4nextEi
libkiten.so.5:_ZN14HistoryPtrList4prevEi
libkiten.so.5:_ZN14HistoryPtrList5countEv
libkiten.so.5:_ZN14HistoryPtrList5indexEv
libkiten.so.5:_ZN14HistoryPtrList7addItemEP9EntryList
libkiten.so.5:_ZN14HistoryPtrList7currentEv
libkiten.so.5:_ZN14HistoryPtrListC1Ev
libkiten.so.5:_ZN14HistoryPtrListC2Ev
libkiten.so.5:_ZN14HistoryPtrListD0Ev
libkiten.so.5:_ZN14HistoryPtrListD1Ev
libkiten.so.5:_ZN14HistoryPtrListD2Ev
libkiten.so.5:_ZN16DictFileKanjidic10validQueryERK9DictQuery
libkiten.so.5:_ZN16DictFileKanjidic12loadListTypeEP19KConfigSkeletonItemP11QStringListRK4QMapI7QStringS5_E
libkiten.so.5:_ZN16DictFileKanjidic12loadSettingsEP15KConfigSkeleton
libkiten.so.5:_ZN16DictFileKanjidic12loadSettingsEv
libkiten.so.5:_ZN16DictFileKanjidic14dumpDictionaryEv
libkiten.so.5:_ZN16DictFileKanjidic14loadDictionaryERK7QStringS2_
libkiten.so.5:_ZN16DictFileKanjidic19validDictionaryFileERK7QString
libkiten.so.5:_ZN16DictFileKanjidic8doSearchERK9DictQuery
libkiten.so.5:_ZN16DictFileKanjidicC1Ev
libkiten.so.5:_ZN16DictFileKanjidicC2Ev
libkiten.so.5:_ZN16DictFileKanjidicD0Ev
libkiten.so.5:_ZN16DictFileKanjidicD1Ev
libkiten.so.5:_ZN16DictFileKanjidicD2Ev
libkiten.so.5:_ZN17DictionaryManager12loadSettingsERK7KConfig
libkiten.so.5:_ZN17DictionaryManager12makeDictFileERK7QString
libkiten.so.5:_ZN17DictionaryManager13addDictionaryERK7QStringS2_S2_
libkiten.so.5:_ZN17DictionaryManager16loadDictSettingsERK7QStringP15KConfigSkeleton
libkiten.so.5:_ZN17DictionaryManager16removeDictionaryERK7QString
libkiten.so.5:_ZN17DictionaryManager17listDictFileTypesEv
libkiten.so.5:_ZN17DictionaryManager21removeAllDictionariesEv
libkiten.so.5:_ZN17DictionaryManager25generatePreferenceDialogsEP15KConfigSkeletonP7QWidget
libkiten.so.5:_ZN17DictionaryManager26generateExtendedFieldsListEv
libkiten.so.5:_ZN17DictionaryManagerC1Ev
libkiten.so.5:_ZN17DictionaryManagerC2Ev
libkiten.so.5:_ZN17DictionaryManagerD0Ev
libkiten.so.5:_ZN17DictionaryManagerD1Ev
libkiten.so.5:_ZN17DictionaryManagerD2Ev
libkiten.so.5:_ZN26DictionaryPreferenceDialog11qt_metacallEN11QMetaObject4CallEiPPv
libkiten.so.5:_ZN26DictionaryPreferenceDialog11qt_metacastEPKc
libkiten.so.5:_ZN26DictionaryPreferenceDialog13widgetChangedEv
libkiten.so.5:_ZN26DictionaryPreferenceDialogC1EP7QWidgetRK7QString
libkiten.so.5:_ZN26DictionaryPreferenceDialogC2EP7QWidgetRK7QString
libkiten.so.5:_ZN26DictionaryPreferenceDialogD0Ev
libkiten.so.5:_ZN26DictionaryPreferenceDialogD1Ev
libkiten.so.5:_ZN26DictionaryPreferenceDialogD2Ev
libkiten.so.5:_ZN5Entry4initEv
libkiten.so.5:_ZN5EntryC1ERK7QString
libkiten.so.5:_ZN5EntryC1ERK7QStringS2_RK11QStringListS5_
libkiten.so.5:_ZN5EntryC1ERKS_
libkiten.so.5:_ZN5EntryC1Ev
libkiten.so.5:_ZN5EntryC2ERK7QString
libkiten.so.5:_ZN5EntryC2ERK7QStringS2_RK11QStringListS5_
libkiten.so.5:_ZN5EntryC2ERKS_
libkiten.so.5:_ZN5EntryC2Ev
libkiten.so.5:_ZN5EntryD0Ev
libkiten.so.5:_ZN5EntryD1Ev
libkiten.so.5:_ZN5EntryD2Ev
libkiten.so.5:_ZN9DictQuery10setMeaningERK7QString
libkiten.so.5:_ZN9DictQuery11setPropertyERK7QStringS2_
libkiten.so.5:_ZN9DictQuery12setMatchTypeENS_9MatchTypeE
libkiten.so.5:_ZN9DictQuery12takePropertyERK7QString
libkiten.so.5:_ZN9DictQuery13charTypeCheckERK5QChar
libkiten.so.5:_ZN9DictQuery13setFilterTypeENS_10FilterTypeE
libkiten.so.5:_ZN9DictQuery14removePropertyERK7QString
libkiten.so.5:_ZN9DictQuery15setDictionariesERK11QStringList
libkiten.so.5:_ZN9DictQuery15stringTypeCheckERK7QString
libkiten.so.5:_ZN9DictQuery16setMatchWordTypeENS_13MatchWordTypeE
libkiten.so.5:_ZN9DictQuery16setPronunciationERK7QString
libkiten.so.5:_ZN9DictQuery5clearEv
libkiten.so.5:_ZN9DictQuery7setWordERK7QString
libkiten.so.5:_ZN9DictQueryC1ERK7QString
libkiten.so.5:_ZN9DictQueryC1ERKS_
libkiten.so.5:_ZN9DictQueryC1Ev
libkiten.so.5:_ZN9DictQueryC2ERK7QString
libkiten.so.5:_ZN9DictQueryC2ERKS_
libkiten.so.5:_ZN9DictQueryC2Ev
libkiten.so.5:_ZN9DictQueryD1Ev
libkiten.so.5:_ZN9DictQueryD2Ev
libkiten.so.5:_ZN9DictQueryaSERK7QString
libkiten.so.5:_ZN9DictQueryaSERKS_
libkiten.so.5:_ZN9DictQueryixERK7QString
libkiten.so.5:_ZN9DictQuerypLERKS_
libkiten.so.5:_ZN9EntryList10appendListEPKS_
libkiten.so.5:_ZN9EntryList14setScrollValueEi
libkiten.so.5:_ZN9EntryList4sortER11QStringListS1_
libkiten.so.5:_ZN9EntryList8setQueryERK9DictQuery
libkiten.so.5:_ZN9EntryList9deleteAllEv
libkiten.so.5:_ZN9EntryListC1ERKS_
libkiten.so.5:_ZN9EntryListC1Ev
libkiten.so.5:_ZN9EntryListC2ERKS_
libkiten.so.5:_ZN9EntryListC2Ev
libkiten.so.5:_ZN9EntryListD0Ev
libkiten.so.5:_ZN9EntryListD1Ev
libkiten.so.5:_ZN9EntryListD2Ev
libkiten.so.5:_ZN9EntryListaSERKS_
libkiten.so.5:_ZN9EntryListpLERKS_
libkiten.so.5:_ZNK10EntryEdict10isParticleEv
libkiten.so.5:_ZNK10EntryEdict11isAdjectiveEv
libkiten.so.5:_ZNK10EntryEdict11isGodanVerbEv
libkiten.so.5:_ZNK10EntryEdict12getTypesListEv
libkiten.so.5:_ZNK10EntryEdict12isExpressionEv
libkiten.so.5:_ZNK10EntryEdict12kanjiLinkifyERK7QString
libkiten.so.5:_ZNK10EntryEdict13isIchidanVerbEv
libkiten.so.5:_ZNK10EntryEdict14isFukisokuVerbEv
libkiten.so.5:_ZNK10EntryEdict15matchesWordTypeERK9DictQuery
libkiten.so.5:_ZNK10EntryEdict17getDictionaryTypeEv
libkiten.so.5:_ZNK10EntryEdict5cloneEv
libkiten.so.5:_ZNK10EntryEdict6isNounEv
libkiten.so.5:_ZNK10EntryEdict6isVerbEv
libkiten.so.5:_ZNK10EntryEdict6toHTMLEv
libkiten.so.5:_ZNK10EntryEdict8HTMLWordEv
libkiten.so.5:_ZNK10EntryEdict8getTypesEv
libkiten.so.5:_ZNK10EntryEdict8isAdverbEv
libkiten.so.5:_ZNK10EntryEdict8isCommonEv
libkiten.so.5:_ZNK10EntryEdict8isPrefixEv
libkiten.so.5:_ZNK10EntryEdict8isSuffixEv
libkiten.so.5:_ZNK10EntryEdict9dumpEntryEv
libkiten.so.5:_ZNK13DictFileEdict14displayOptionsEv
libkiten.so.5:_ZNK13DictFileEdict18loadDisplayOptionsEv
libkiten.so.5:_ZNK13DictFileEdict22listDictDisplayOptionsE11QStringList
libkiten.so.5:_ZNK13EntryKanjidic11addReadingsERK11QStringList
libkiten.so.5:_ZNK13EntryKanjidic12HTMLReadingsEv
libkiten.so.5:_ZNK13EntryKanjidic13getKanjiGradeEv
libkiten.so.5:_ZNK13EntryKanjidic15getStrokesCountEv
libkiten.so.5:_ZNK13EntryKanjidic15makeReadingLinkERK7QString
libkiten.so.5:_ZNK13EntryKanjidic16HTMLExtendedInfoERK7QString
libkiten.so.5:_ZNK13EntryKanjidic17extendedItemCheckERK7QStringS2_
libkiten.so.5:_ZNK13EntryKanjidic17getDictionaryTypeEv
libkiten.so.5:_ZNK13EntryKanjidic17getOnyomiReadingsEv
libkiten.so.5:_ZNK13EntryKanjidic18getInNamesReadingsEv
libkiten.so.5:_ZNK13EntryKanjidic18getKunyomiReadingsEv
libkiten.so.5:_ZNK13EntryKanjidic20getAsRadicalReadingsEv
libkiten.so.5:_ZNK13EntryKanjidic21getOnyomiReadingsListEv
libkiten.so.5:_ZNK13EntryKanjidic22getInNamesReadingsListEv
libkiten.so.5:_ZNK13EntryKanjidic22getKunyomiReadingsListEv
libkiten.so.5:_ZNK13EntryKanjidic24getAsRadicalReadingsListEv
libkiten.so.5:_ZNK13EntryKanjidic5cloneEv
libkiten.so.5:_ZNK13EntryKanjidic6toHTMLEv
libkiten.so.5:_ZNK13EntryKanjidic8HTMLWordEv
libkiten.so.5:_ZNK13EntryKanjidic9dumpEntryEv
libkiten.so.5:_ZNK16DictFileKanjidic14displayOptionsEv
libkiten.so.5:_ZNK16DictFileKanjidic18loadDisplayOptionsEv
libkiten.so.5:_ZNK16DictFileKanjidic22listDictDisplayOptionsE11QStringList
libkiten.so.5:_ZNK17DictionaryManager14doSearchInListERK9DictQueryPK9EntryList
libkiten.so.5:_ZNK17DictionaryManager16listDictionariesEv
libkiten.so.5:_ZNK17DictionaryManager18listDictionaryInfoERK7QString
libkiten.so.5:_ZNK17DictionaryManager22listDictionariesOfTypeERK7QString
libkiten.so.5:_ZNK17DictionaryManager8doSearchERK9DictQuery
libkiten.so.5:_ZNK26DictionaryPreferenceDialog10metaObjectEv
libkiten.so.5:_ZNK26DictionaryPreferenceDialog4nameEv
libkiten.so.5:_ZNK5Entry11getDictNameEv
libkiten.so.5:_ZNK5Entry11getMeaningsEv
libkiten.so.5:_ZNK5Entry11getReadingsEv
libkiten.so.5:_ZNK5Entry11sortByFieldERKS_RK7QString
libkiten.so.5:_ZNK5Entry12matchesQueryERK9DictQuery
libkiten.so.5:_ZNK5Entry15getExtendedInfoEv
libkiten.so.5:_ZNK5Entry15getMeaningsListEv
libkiten.so.5:_ZNK5Entry15getReadingsListEv
libkiten.so.5:_ZNK5Entry17extendedItemCheckERK7QStringS2_
libkiten.so.5:_ZNK5Entry19getExtendedInfoItemERK7QString
libkiten.so.5:_ZNK5Entry4sortERKS_RK11QStringListS4_
libkiten.so.5:_ZNK5Entry6toHTMLEv
libkiten.so.5:_ZNK5Entry7getWordEv
libkiten.so.5:_ZNK5Entry7isKanjiERK5QChar
libkiten.so.5:_ZNK5Entry8toStringEv
libkiten.so.5:_ZNK5Entry9listMatchERK11QStringListS2_N9DictQuery9MatchTypeE
libkiten.so.5:_ZNK9DictQuery10getMeaningEv
libkiten.so.5:_ZNK9DictQuery11getPropertyERK7QString
libkiten.so.5:_ZNK9DictQuery11hasPropertyERK7QString
libkiten.so.5:_ZNK9DictQuery12getMatchTypeEv
libkiten.so.5:_ZNK9DictQuery13getFilterTypeEv
libkiten.so.5:_ZNK9DictQuery15getDictionariesEv
libkiten.so.5:_ZNK9DictQuery16getMatchWordTypeEv
libkiten.so.5:_ZNK9DictQuery16getPronunciationEv
libkiten.so.5:_ZNK9DictQuery16listPropertyKeysEv
libkiten.so.5:_ZNK9DictQuery5cloneEv
libkiten.so.5:_ZNK9DictQuery7getWordEv
libkiten.so.5:_ZNK9DictQuery7isEmptyEv
libkiten.so.5:_ZNK9DictQuery8toStringEv
libkiten.so.5:_ZNK9DictQuerycv7QStringEv
libkiten.so.5:_ZNK9DictQueryixERK7QString
libkiten.so.5:_ZNK9EntryList11scrollValueEv
libkiten.so.5:_ZNK9EntryList6toHTMLEjj
libkiten.so.5:_ZNK9EntryList6toHTMLEv
libkiten.so.5:_ZNK9EntryList7toKVTMLEjj
libkiten.so.5:_ZNK9EntryList8getQueryEv
libkiten.so.5:_ZNK9EntryList8toStringEjj
libkiten.so.5:_ZNK9EntryList8toStringEv
libkiten.so.5:_ZThn16_N26DictionaryPreferenceDialogD0Ev
libkiten.so.5:_ZThn16_N26DictionaryPreferenceDialogD1Ev
libkiten.so.5:_ZeqRK9DictQueryS1_
libkiten.so.5:_ZltRK9DictQueryS1_
libkiten.so.5:_ZneRK9DictQueryS1_
libkiten.so.5:_ZplRK9DictQueryS1_
